; Function Attrs: mustprogress uwtable
define hidden noundef float @_ZN6Assimp19Discreet3DSImporter20ParsePercentageChunkEv(ptr nocapture noundef nonnull readonly align 8 dereferenceable(162) %this) local_unnamed_addr #2 align 2 personality ptr @__gxx_personality_v0 {
entry:
  %chunk = alloca %"struct.Assimp::D3DS::Discreet3DS::Chunk", align 2
  call void @_ZN6Assimp19Discreet3DSImporter9ReadChunkEPNS_4D3DS11Discreet3DS5ChunkE(ptr noundef nonnull align 8 dereferenceable(162) %this, ptr noundef nonnull %chunk)
  %0 = load i16, ptr %chunk, align 2
  switch i16 %0, label %return [
    i16 49, label %if.then
    i16 48, label %if.then5
  ]

if.then:                                          ; preds = %entry
  %stream = getelementptr inbounds i8, ptr %this, i64 72
  %1 = load ptr, ptr %stream, align 8
  %mCurrent.i.i = getelementptr inbounds i8, ptr %1, i64 24
  %2 = load ptr, ptr %mCurrent.i.i, align 8
  %add.ptr.i.i = getelementptr inbounds i8, ptr %2, i64 4
  %mLimit.i.i = getelementptr inbounds i8, ptr %1, i64 40
  %3 = load ptr, ptr %mLimit.i.i, align 8
  %cmp.i.i = icmp ugt ptr %add.ptr.i.i, %3
  br i1 %cmp.i.i, label %if.then.i.i, label %_ZN6Assimp12StreamReaderILb0ELb0EE5GetF4Ev.exit

if.then.i.i:                                      ; preds = %if.then
  %exception.i.i = tail call ptr @__cxa_allocate_exception(i64 16) #22
  invoke void @_ZN17DeadlyImportErrorC2EPKc(ptr noundef nonnull align 8 dereferenceable(16) %exception.i.i, ptr noundef nonnull @.str.37)
          to label %invoke.cont.i.i unwind label %lpad.i.i

invoke.cont.i.i:                                  ; preds = %if.then.i.i
  tail call void @__cxa_throw(ptr nonnull %exception.i.i, ptr nonnull @_ZTI17DeadlyImportError, ptr nonnull @_ZN17DeadlyImportErrorD2Ev) #23
  unreachable

common.resume:                                    ; preds = %lpad.i.i7, %lpad.i.i
  %exception.i.i6.sink = phi ptr [ %exception.i.i6, %lpad.i.i7 ], [ %exception.i.i, %lpad.i.i ]
  %common.resume.op = phi { ptr, i32 } [ %9, %lpad.i.i7 ], [ %4, %lpad.i.i ]
  tail call void @__cxa_free_exception(ptr %exception.i.i6.sink) #22
  resume { ptr, i32 } %common.resume.op

lpad.i.i:                                         ; preds = %if.then.i.i
  %4 = landingpad { ptr, i32 }
          cleanup
  br label %common.resume

_ZN6Assimp12StreamReaderILb0ELb0EE5GetF4Ev.exit:  ; preds = %if.then
  %5 = load float, ptr %2, align 1
  store ptr %add.ptr.i.i, ptr %mCurrent.i.i, align 8
  %mul = fmul float %5, 1.000000e+02
  %div = fdiv float %mul, 6.553500e+04
  br label %return

if.then5:                                         ; preds = %entry
  %stream6 = getelementptr inbounds i8, ptr %this, i64 72
  %6 = load ptr, ptr %stream6, align 8
  %mCurrent.i.i1 = getelementptr inbounds i8, ptr %6, i64 24
  %7 = load ptr, ptr %mCurrent.i.i1, align 8
  %add.ptr.i.i2 = getelementptr inbounds i8, ptr %7, i64 2
  %mLimit.i.i3 = getelementptr inbounds i8, ptr %6, i64 40
  %8 = load ptr, ptr %mLimit.i.i3, align 8
  %cmp.i.i4 = icmp ugt ptr %add.ptr.i.i2, %8
  br i1 %cmp.i.i4, label %if.then.i.i5, label %_ZN6Assimp12StreamReaderILb0ELb0EE5GetI2Ev.exit

if.then.i.i5:                                     ; preds = %if.then5
  %exception.i.i6 = tail call ptr @__cxa_allocate_exception(i64 16) #22
  invoke void @_ZN17DeadlyImportErrorC2EPKc(ptr noundef nonnull align 8 dereferenceable(16) %exception.i.i6, ptr noundef nonnull @.str.37)
          to label %invoke.cont.i.i8 unwind label %lpad.i.i7

invoke.cont.i.i8:                                 ; preds = %if.then.i.i5
  tail call void @__cxa_throw(ptr nonnull %exception.i.i6, ptr nonnull @_ZTI17DeadlyImportError, ptr nonnull @_ZN17DeadlyImportErrorD2Ev) #23
  unreachable

lpad.i.i7:                                        ; preds = %if.then.i.i5
  %9 = landingpad { ptr, i32 }
          cleanup
  br label %common.resume

_ZN6Assimp12StreamReaderILb0ELb0EE5GetI2Ev.exit:  ; preds = %if.then5
  %10 = load i16, ptr %7, align 1
  store ptr %add.ptr.i.i2, ptr %mCurrent.i.i1, align 8
  %conv8 = uitofp i16 %10 to float
  %div9 = fdiv float %conv8, 6.553500e+04
  br label %return

return:                                           ; preds = %entry, %_ZN6Assimp12StreamReaderILb0ELb0EE5GetI2Ev.exit, %_ZN6Assimp12StreamReaderILb0ELb0EE5GetF4Ev.exit
  %retval.0 = phi float [ %div, %_ZN6Assimp12StreamReaderILb0ELb0EE5GetF4Ev.exit ], [ %div9, %_ZN6Assimp12StreamReaderILb0ELb0EE5GetI2Ev.exit ], [ 0x7FF8000000000000, %entry ]
  ret float %retval.0
}